target datalayout = "e-m:e-p270:32:32-p271:32:32-p272:64:64-i64:64-i128:128-f80:128-n8:16:32:64-S128"
target triple = "x86_64-pc-linux-gnu"

%"class.std::__cxx11::basic_string" = type { %"struct.std::__cxx11::basic_string<char>::_Alloc_hider", i64, %union.anon }
%"struct.std::__cxx11::basic_string<char>::_Alloc_hider" = type { ptr }
%union.anon = type { i64, [8 x i8] }

; Function Attrs: mustprogress uwtable
define internal void @_ZN32pxrInternal_v0_24__pxrReserved__L20_StringFromAssetPathERKNSt7__cxx1112basic_stringIcSt11char_traitsIcESaIcEEE(ptr dead_on_unwind noalias writable sret(%"class.std::__cxx11::basic_string") align 8 %0, ptr noundef nonnull align 8 dereferenceable(32) %1) #0 personality ptr @__gxx_personality_v0 {
  %3 = alloca ptr, align 8
  %4 = alloca ptr, align 8
  %5 = alloca i8, align 1
  %6 = alloca i8, align 1
  %7 = alloca i1, align 1
  %8 = alloca ptr, align 8
  %9 = alloca i32, align 4
  %10 = alloca ptr, align 8
  store ptr %0, ptr %3, align 8
  store ptr %1, ptr %4, align 8
  store i8 64, ptr %5, align 1
  %11 = load ptr, ptr %4, align 8
  %12 = call noundef i64 @_ZNKSt7__cxx1112basic_stringIcSt11char_traitsIcESaIcEE4findEcm(ptr noundef nonnull align 8 dereferenceable(32) %11, i8 noundef signext 64, i64 noundef 0) #13
  %13 = icmp ne i64 %12, -1
  %14 = zext i1 %13 to i8
  store i8 %14, ptr %6, align 1
  store i1 false, ptr %7, align 1
  call void @_ZNSt7__cxx1112basic_stringIcSt11char_traitsIcESaIcEEC1Ev(ptr noundef nonnull align 8 dereferenceable(32) %0) #13
  %15 = load ptr, ptr %4, align 8
  %16 = call noundef i64 @_ZNKSt7__cxx1112basic_stringIcSt11char_traitsIcESaIcEE4sizeEv(ptr noundef nonnull align 8 dereferenceable(32) %15) #13
  %17 = load i8, ptr %6, align 1
  %18 = trunc i8 %17 to i1
  %19 = select i1 %18, i32 6, i32 2
  %20 = sext i32 %19 to i64
  %21 = add i64 %16, %20
  invoke void @_ZNSt7__cxx1112basic_stringIcSt11char_traitsIcESaIcEE7reserveEm(ptr noundef nonnull align 8 dereferenceable(32) %0, i64 noundef %21)
          to label %22 unwind label %62

22:                                               ; preds = %2
  %23 = load i8, ptr %6, align 1
  %24 = trunc i8 %23 to i1
  %25 = select i1 %24, i32 3, i32 1
  %26 = sext i32 %25 to i64
  %27 = invoke noundef nonnull align 8 dereferenceable(32) ptr @_ZNSt7__cxx1112basic_stringIcSt11char_traitsIcESaIcEE6appendEmc(ptr noundef nonnull align 8 dereferenceable(32) %0, i64 noundef %26, i8 noundef signext 64)
          to label %28 unwind label %62

28:                                               ; preds = %22
  %29 = load ptr, ptr %4, align 8
  %30 = call noundef ptr @_ZNKSt7__cxx1112basic_stringIcSt11char_traitsIcESaIcEE5c_strEv(ptr noundef nonnull align 8 dereferenceable(32) %29) #13
  store ptr %30, ptr %10, align 8
  br label %31

31:                                               ; preds = %70, %28
  %32 = load ptr, ptr %10, align 8
  %33 = load i8, ptr %32, align 1
  %34 = icmp ne i8 %33, 0
  br i1 %34, label %35, label %73

35:                                               ; preds = %31
  %36 = load i8, ptr %6, align 1
  %37 = trunc i8 %36 to i1
  br i1 %37, label %38, label %66

38:                                               ; preds = %35
  %39 = load ptr, ptr %10, align 8
  %40 = getelementptr inbounds i8, ptr %39, i64 0
  %41 = load i8, ptr %40, align 1
  %42 = sext i8 %41 to i32
  %43 = icmp eq i32 %42, 64
  br i1 %43, label %44, label %66

44:                                               ; preds = %38
  %45 = load ptr, ptr %10, align 8
  %46 = getelementptr inbounds i8, ptr %45, i64 1
  %47 = load i8, ptr %46, align 1
  %48 = sext i8 %47 to i32
  %49 = icmp eq i32 %48, 64
  br i1 %49, label %50, label %66

50:                                               ; preds = %44
  %51 = load ptr, ptr %10, align 8
  %52 = getelementptr inbounds i8, ptr %51, i64 2
  %53 = load i8, ptr %52, align 1
  %54 = sext i8 %53 to i32
  %55 = icmp eq i32 %54, 64
  br i1 %55, label %56, label %66

56:                                               ; preds = %50
  invoke void @_ZNSt7__cxx1112basic_stringIcSt11char_traitsIcESaIcEE9push_backEc(ptr noundef nonnull align 8 dereferenceable(32) %0, i8 noundef signext 92)
          to label %57 unwind label %62

57:                                               ; preds = %56
  %58 = invoke noundef nonnull align 8 dereferenceable(32) ptr @_ZNSt7__cxx1112basic_stringIcSt11char_traitsIcESaIcEE6appendEmc(ptr noundef nonnull align 8 dereferenceable(32) %0, i64 noundef 3, i8 noundef signext 64)
          to label %59 unwind label %62

59:                                               ; preds = %57
  %60 = load ptr, ptr %10, align 8
  %61 = getelementptr inbounds i8, ptr %60, i64 2
  store ptr %61, ptr %10, align 8
  br label %70

62:                                               ; preds = %73, %66, %57, %56, %22, %2
  %63 = landingpad { ptr, i32 }
          cleanup
  %64 = extractvalue { ptr, i32 } %63, 0
  store ptr %64, ptr %8, align 8
  %65 = extractvalue { ptr, i32 } %63, 1
  store i32 %65, ptr %9, align 4
  call void @_ZNSt7__cxx1112basic_stringIcSt11char_traitsIcESaIcEED1Ev(ptr noundef nonnull align 8 dereferenceable(32) %0) #13
  br label %83

66:                                               ; preds = %50, %44, %38, %35
  %67 = load ptr, ptr %10, align 8
  %68 = load i8, ptr %67, align 1
  invoke void @_ZNSt7__cxx1112basic_stringIcSt11char_traitsIcESaIcEE9push_backEc(ptr noundef nonnull align 8 dereferenceable(32) %0, i8 noundef signext %68)
          to label %69 unwind label %62

69:                                               ; preds = %66
  br label %70

70:                                               ; preds = %69, %59
  %71 = load ptr, ptr %10, align 8
  %72 = getelementptr inbounds i8, ptr %71, i32 1
  store ptr %72, ptr %10, align 8
  br label %31, !llvm.loop !8

73:                                               ; preds = %31
  %74 = load i8, ptr %6, align 1
  %75 = trunc i8 %74 to i1
  %76 = select i1 %75, i32 3, i32 1
  %77 = sext i32 %76 to i64
  %78 = invoke noundef nonnull align 8 dereferenceable(32) ptr @_ZNSt7__cxx1112basic_stringIcSt11char_traitsIcESaIcEE6appendEmc(ptr noundef nonnull align 8 dereferenceable(32) %0, i64 noundef %77, i8 noundef signext 64)
          to label %79 unwind label %62

79:                                               ; preds = %73
  store i1 true, ptr %7, align 1
  %80 = load i1, ptr %7, align 1
  br i1 %80, label %82, label %81

81:                                               ; preds = %79
  call void @_ZNSt7__cxx1112basic_stringIcSt11char_traitsIcESaIcEED1Ev(ptr noundef nonnull align 8 dereferenceable(32) %0) #13
  br label %82

82:                                               ; preds = %81, %79
  ret void

83:                                               ; preds = %62
  %84 = load ptr, ptr %8, align 8
  %85 = load i32, ptr %9, align 4
  %86 = insertvalue { ptr, i32 } poison, ptr %84, 0
  %87 = insertvalue { ptr, i32 } %86, i32 %85, 1
  resume { ptr, i32 } %87
}