; Function Attrs: mustprogress uwtable
define internal fastcc void @_ZN32pxrInternal_v0_24__pxrReserved__L20_StringFromAssetPathERKNSt7__cxx1112basic_stringIcSt11char_traitsIcESaIcEEE(ptr dead_on_unwind noalias writable align 8 %0, ptr noundef nonnull align 8 dereferenceable(32) %1) unnamed_addr #0 personality ptr @__gxx_personality_v0 {
  %3 = tail call noundef i64 @_ZNKSt7__cxx1112basic_stringIcSt11char_traitsIcESaIcEE4findEcm(ptr noundef nonnull align 8 dereferenceable(32) %1, i8 noundef signext 64, i64 noundef 0) #18
  %.not.not = icmp eq i64 %3, -1
  tail call void @_ZNSt7__cxx1112basic_stringIcSt11char_traitsIcESaIcEEC1Ev(ptr noundef nonnull align 8 dereferenceable(32) %0) #18
  %4 = tail call noundef i64 @_ZNKSt7__cxx1112basic_stringIcSt11char_traitsIcESaIcEE4sizeEv(ptr noundef nonnull align 8 dereferenceable(32) %1) #18
  %5 = select i1 %.not.not, i64 2, i64 6
  %6 = add i64 %4, %5
  invoke void @_ZNSt7__cxx1112basic_stringIcSt11char_traitsIcESaIcEE7reserveEm(ptr noundef nonnull align 8 dereferenceable(32) %0, i64 noundef %6)
          to label %7 unwind label %.loopexit.split-lp

7:                                                ; preds = %2
  %8 = select i1 %.not.not, i64 1, i64 3
  %9 = invoke noundef nonnull align 8 dereferenceable(32) ptr @_ZNSt7__cxx1112basic_stringIcSt11char_traitsIcESaIcEE6appendEmc(ptr noundef nonnull align 8 dereferenceable(32) %0, i64 noundef %8, i8 noundef signext 64)
          to label %10 unwind label %.loopexit.split-lp

10:                                               ; preds = %7
  %11 = tail call noundef ptr @_ZNKSt7__cxx1112basic_stringIcSt11char_traitsIcESaIcEE5c_strEv(ptr noundef nonnull align 8 dereferenceable(32) %1) #18
  %12 = load i8, ptr %11, align 1
  %.not1718 = icmp eq i8 %12, 0
  br i1 %.not1718, label %._crit_edge, label %.lr.ph

.lr.ph:                                           ; preds = %10
  br i1 %.not.not, label %.lr.ph.split.us, label %.lr.ph.split

.lr.ph.split.us:                                  ; preds = %.lr.ph, %14
  %13 = phi i8 [ %16, %14 ], [ %12, %.lr.ph ]
  %.019.us = phi ptr [ %15, %14 ], [ %11, %.lr.ph ]
  invoke void @_ZNSt7__cxx1112basic_stringIcSt11char_traitsIcESaIcEE9push_backEc(ptr noundef nonnull align 8 dereferenceable(32) %0, i8 noundef signext %13)
          to label %14 unwind label %.loopexit.split.us

14:                                               ; preds = %.lr.ph.split.us
  %15 = getelementptr inbounds i8, ptr %.019.us, i64 1
  %16 = load i8, ptr %15, align 1
  %.not17.us = icmp eq i8 %16, 0
  br i1 %.not17.us, label %._crit_edge, label %.lr.ph.split.us, !llvm.loop !11

.loopexit.split.us:                               ; preds = %.lr.ph.split.us
  %lpad.loopexit.us = landingpad { ptr, i32 }
          cleanup
  br label %.loopexit

.lr.ph.split:                                     ; preds = %.lr.ph, %31
  %17 = phi i8 [ %33, %31 ], [ %12, %.lr.ph ]
  %.019 = phi ptr [ %32, %31 ], [ %11, %.lr.ph ]
  %18 = icmp eq i8 %17, 64
  br i1 %18, label %19, label %30

19:                                               ; preds = %.lr.ph.split
  %20 = getelementptr inbounds i8, ptr %.019, i64 1
  %21 = load i8, ptr %20, align 1
  %22 = icmp eq i8 %21, 64
  br i1 %22, label %23, label %30

23:                                               ; preds = %19
  %24 = getelementptr inbounds i8, ptr %.019, i64 2
  %25 = load i8, ptr %24, align 1
  %26 = icmp eq i8 %25, 64
  br i1 %26, label %27, label %30

27:                                               ; preds = %23
  invoke void @_ZNSt7__cxx1112basic_stringIcSt11char_traitsIcESaIcEE9push_backEc(ptr noundef nonnull align 8 dereferenceable(32) %0, i8 noundef signext 92)
          to label %28 unwind label %.loopexit.split

28:                                               ; preds = %27
  %29 = invoke noundef nonnull align 8 dereferenceable(32) ptr @_ZNSt7__cxx1112basic_stringIcSt11char_traitsIcESaIcEE6appendEmc(ptr noundef nonnull align 8 dereferenceable(32) %0, i64 noundef 3, i8 noundef signext 64)
          to label %31 unwind label %.loopexit.split

.loopexit.split:                                  ; preds = %27, %28, %30
  %lpad.loopexit = landingpad { ptr, i32 }
          cleanup
  br label %.loopexit

.loopexit.split-lp:                               ; preds = %2, %7, %._crit_edge
  %lpad.loopexit.split-lp = landingpad { ptr, i32 }
          cleanup
  br label %.loopexit

.loopexit:                                        ; preds = %.loopexit.split, %.loopexit.split.us, %.loopexit.split-lp
  %lpad.phi = phi { ptr, i32 } [ %lpad.loopexit.split-lp, %.loopexit.split-lp ], [ %lpad.loopexit, %.loopexit.split ], [ %lpad.loopexit.us, %.loopexit.split.us ]
  tail call void @_ZNSt7__cxx1112basic_stringIcSt11char_traitsIcESaIcEED1Ev(ptr noundef nonnull align 8 dereferenceable(32) %0) #18
  resume { ptr, i32 } %lpad.phi

30:                                               ; preds = %23, %19, %.lr.ph.split
  invoke void @_ZNSt7__cxx1112basic_stringIcSt11char_traitsIcESaIcEE9push_backEc(ptr noundef nonnull align 8 dereferenceable(32) %0, i8 noundef signext %17)
          to label %31 unwind label %.loopexit.split

31:                                               ; preds = %28, %30
  %.1 = phi ptr [ %.019, %30 ], [ %24, %28 ]
  %32 = getelementptr inbounds i8, ptr %.1, i64 1
  %33 = load i8, ptr %32, align 1
  %.not17 = icmp eq i8 %33, 0
  br i1 %.not17, label %._crit_edge, label %.lr.ph.split, !llvm.loop !11

._crit_edge:                                      ; preds = %31, %14, %10
  %34 = invoke noundef nonnull align 8 dereferenceable(32) ptr @_ZNSt7__cxx1112basic_stringIcSt11char_traitsIcESaIcEE6appendEmc(ptr noundef nonnull align 8 dereferenceable(32) %0, i64 noundef %8, i8 noundef signext 64)
          to label %35 unwind label %.loopexit.split-lp

35:                                               ; preds = %._crit_edge
  ret void
}